; Function Attrs: uwtable
define noundef i32 @_ZThn16_N20FilterFunctionPlugin15getRequirementsEPK7QAction(ptr noundef %0, ptr noundef %1) unnamed_addr #16 align 2 {
  %3 = load ptr, ptr %0, align 8
  %4 = getelementptr inbounds i8, ptr %3, i64 144
  %5 = load ptr, ptr %4, align 8
  %6 = tail call noundef i32 %5(ptr noundef nonnull align 8 dereferenceable(64) %0, ptr noundef %1)
  switch i32 %6, label %_ZN20FilterFunctionPlugin15getRequirementsEPK7QAction.exit [
    i32 17, label %10
    i32 5, label %9
    i32 10, label %8
    i32 4, label %7
  ]

7:                                                ; preds = %2
  br label %_ZN20FilterFunctionPlugin15getRequirementsEPK7QAction.exit

8:                                                ; preds = %2
  br label %_ZN20FilterFunctionPlugin15getRequirementsEPK7QAction.exit

9:                                                ; preds = %2
  br label %_ZN20FilterFunctionPlugin15getRequirementsEPK7QAction.exit

10:                                               ; preds = %2
  br label %_ZN20FilterFunctionPlugin15getRequirementsEPK7QAction.exit

_ZN20FilterFunctionPlugin15getRequirementsEPK7QAction.exit: ; preds = %2, %7, %8, %9, %10
  %.0.i = phi i32 [ 262176, %10 ], [ 32768, %9 ], [ 98304, %8 ], [ 2097152, %7 ], [ 0, %2 ]
  ret i32 %.0.i
}